target datalayout = "e-m:e-p270:32:32-p271:32:32-p272:64:64-i64:64-i128:128-f80:128-n8:16:32:64-S128"
target triple = "x86_64-unknown-linux-gnu"

%"class.Imath_3_2::Vec3" = type { float, float, float }
%"class.Imf_3_2::TiledRgbaOutputFile::ToYa" = type { ptr, i8, i32, i32, %"class.Imath_3_2::Vec3", %"class.Imf_3_2::Array2D", ptr, i64, i64 }
%"class.Imf_3_2::Array2D" = type { i64, i64, ptr }

; Function Attrs: mustprogress nounwind uwtable
define hidden void @_ZN7Imf_3_219TiledRgbaOutputFile4ToYa14setFrameBufferEPKNS_4RgbaEmm(ptr noundef nonnull align 8 dereferenceable(80) %this, ptr noundef %base, i64 noundef %xStride, i64 noundef %yStride) #5 align 2 {
entry:
  %this.addr = alloca ptr, align 8
  %base.addr = alloca ptr, align 8
  %xStride.addr = alloca i64, align 8
  %yStride.addr = alloca i64, align 8
  store ptr %this, ptr %this.addr, align 8
  store ptr %base, ptr %base.addr, align 8
  store i64 %xStride, ptr %xStride.addr, align 8
  store i64 %yStride, ptr %yStride.addr, align 8
  %this1 = load ptr, ptr %this.addr, align 8
  %0 = load ptr, ptr %base.addr, align 8
  %_fbBase = getelementptr inbounds %"class.Imf_3_2::TiledRgbaOutputFile::ToYa", ptr %this1, i32 0, i32 6
  store ptr %0, ptr %_fbBase, align 8
  %1 = load i64, ptr %xStride.addr, align 8
  %_fbXStride = getelementptr inbounds %"class.Imf_3_2::TiledRgbaOutputFile::ToYa", ptr %this1, i32 0, i32 7
  store i64 %1, ptr %_fbXStride, align 8
  %2 = load i64, ptr %yStride.addr, align 8
  %_fbYStride = getelementptr inbounds %"class.Imf_3_2::TiledRgbaOutputFile::ToYa", ptr %this1, i32 0, i32 8
  store i64 %2, ptr %_fbYStride, align 8
  ret void
}