; Function Attrs: mustprogress nofree norecurse nosync nounwind willreturn memory(argmem: write) uwtable
define hidden void @_ZN7Imf_3_219TiledRgbaOutputFile4ToYa14setFrameBufferEPKNS_4RgbaEmm(ptr nocapture noundef nonnull writeonly align 8 dereferenceable(80) %this, ptr noundef %base, i64 noundef %xStride, i64 noundef %yStride) local_unnamed_addr #4 align 2 {
entry:
  %_fbBase = getelementptr inbounds i8, ptr %this, i64 56
  store ptr %base, ptr %_fbBase, align 8
  %_fbXStride = getelementptr inbounds i8, ptr %this, i64 64
  store i64 %xStride, ptr %_fbXStride, align 8
  %_fbYStride = getelementptr inbounds i8, ptr %this, i64 72
  store i64 %yStride, ptr %_fbYStride, align 8
  ret void
}